; Function Attrs: nounwind uwtable
define noalias nonnull ptr @l_Lean_Meta_Grind_mkEMatchTheoremWithKind_x3f_go___lambda__1(ptr noundef %0, ptr noundef %1, ptr noundef %2, ptr noundef %3, ptr noundef %4, ptr noundef %5, i8 noundef zeroext %6, ptr readnone captures(none) %7, ptr readnone captures(none) %8, ptr readnone captures(none) %9, ptr readnone captures(none) %10, ptr readnone captures(none) %11, ptr noundef %12) local_unnamed_addr #1 {
  tail call void @lean_inc_heartbeat() #9
  %14 = tail call noalias ptr @mi_malloc_small(i64 noundef 64) #9
  %15 = icmp eq ptr %14, null
  br i1 %15, label %16, label %lean_alloc_ctor.exit

16:                                               ; preds = %13
  tail call void @lean_internal_panic_out_of_memory() #10
  unreachable

lean_alloc_ctor.exit:                             ; preds = %13
  %17 = getelementptr inbounds nuw i8, ptr %14, i64 4
  %18 = getelementptr inbounds nuw i8, ptr %14, i64 56
  store i64 0, ptr %18, align 8, !tbaa !12
  store i32 1, ptr %14, align 4, !tbaa !4
  store i32 393280, ptr %17, align 4
  %19 = getelementptr inbounds nuw i8, ptr %14, i64 8
  store ptr %0, ptr %19, align 8, !tbaa !9
  %20 = getelementptr inbounds nuw i8, ptr %14, i64 16
  store ptr %1, ptr %20, align 8, !tbaa !9
  %21 = getelementptr inbounds nuw i8, ptr %14, i64 24
  store ptr %2, ptr %21, align 8, !tbaa !9
  %22 = getelementptr inbounds nuw i8, ptr %14, i64 32
  store ptr %3, ptr %22, align 8, !tbaa !9
  %23 = getelementptr inbounds nuw i8, ptr %14, i64 40
  store ptr %4, ptr %23, align 8, !tbaa !9
  %24 = getelementptr inbounds nuw i8, ptr %14, i64 48
  store ptr %5, ptr %24, align 8, !tbaa !9
  store i8 %6, ptr %18, align 1, !tbaa !18
  tail call void @lean_inc_heartbeat() #9
  %25 = tail call noalias ptr @mi_malloc_small(i64 noundef 16) #9
  %26 = icmp eq ptr %25, null
  br i1 %26, label %27, label %lean_alloc_ctor.exit20

27:                                               ; preds = %lean_alloc_ctor.exit
  tail call void @lean_internal_panic_out_of_memory() #10
  unreachable

lean_alloc_ctor.exit20:                           ; preds = %lean_alloc_ctor.exit
  %28 = getelementptr inbounds nuw i8, ptr %25, i64 4
  store i32 1, ptr %25, align 4, !tbaa !4
  store i32 16842768, ptr %28, align 4
  %29 = getelementptr inbounds nuw i8, ptr %25, i64 8
  store ptr %14, ptr %29, align 8, !tbaa !9
  tail call void @lean_inc_heartbeat() #9
  %30 = tail call noalias ptr @mi_malloc_small(i64 noundef 24) #9
  %31 = icmp eq ptr %30, null
  br i1 %31, label %32, label %lean_alloc_ctor.exit21

32:                                               ; preds = %lean_alloc_ctor.exit20
  tail call void @lean_internal_panic_out_of_memory() #10
  unreachable

lean_alloc_ctor.exit21:                           ; preds = %lean_alloc_ctor.exit20
  %33 = getelementptr inbounds nuw i8, ptr %30, i64 4
  store i32 1, ptr %30, align 4, !tbaa !4
  store i32 131096, ptr %33, align 4
  %34 = getelementptr inbounds nuw i8, ptr %30, i64 8
  store ptr %25, ptr %34, align 8, !tbaa !9
  %35 = getelementptr inbounds nuw i8, ptr %30, i64 16
  store ptr %12, ptr %35, align 8, !tbaa !9
  ret ptr %30
}